; Function Attrs: nounwind uwtable
define void @SzFolder_Free(ptr noundef captures(none) %0, ptr noundef %1) local_unnamed_addr #0 {
  %3 = load ptr, ptr %0, align 8
  %.not = icmp eq ptr %3, null
  br i1 %.not, label %.loopexit, label %.preheader

.preheader:                                       ; preds = %2
  %4 = getelementptr inbounds nuw i8, ptr %0, i64 32
  %5 = load i32, ptr %4, align 8
  %.not20 = icmp eq i32 %5, 0
  br i1 %.not20, label %.loopexit, label %.lr.ph

.lr.ph:                                           ; preds = %.preheader, %.lr.ph
  %indvars.iv = phi i64 [ %indvars.iv.next, %.lr.ph ], [ 0, %.preheader ]
  %6 = load ptr, ptr %0, align 8
  %7 = getelementptr inbounds nuw %struct.CSzCoderInfo, ptr %6, i64 %indvars.iv, i32 3
  tail call void @Buf_Free(ptr noundef nonnull %7, ptr noundef %1) #11
  tail call void @Buf_Init(ptr noundef nonnull %7) #11
  %indvars.iv.next = add nuw nsw i64 %indvars.iv, 1
  %8 = load i32, ptr %4, align 8
  %9 = zext i32 %8 to i64
  %10 = icmp samesign ult i64 %indvars.iv.next, %9
  br i1 %10, label %.lr.ph, label %.loopexit.loopexit

.loopexit.loopexit:                               ; preds = %.lr.ph
  %.pre = load ptr, ptr %0, align 8
  br label %.loopexit

.loopexit:                                        ; preds = %.loopexit.loopexit, %.preheader, %2
  %11 = phi ptr [ %.pre, %.loopexit.loopexit ], [ %3, %.preheader ], [ null, %2 ]
  %12 = getelementptr inbounds nuw i8, ptr %1, i64 8
  %13 = load ptr, ptr %12, align 8
  tail call void %13(ptr noundef %1, ptr noundef %11) #11
  %14 = load ptr, ptr %12, align 8
  %15 = getelementptr inbounds nuw i8, ptr %0, i64 8
  %16 = load ptr, ptr %15, align 8
  tail call void %14(ptr noundef %1, ptr noundef %16) #11
  %17 = load ptr, ptr %12, align 8
  %18 = getelementptr inbounds nuw i8, ptr %0, i64 16
  %19 = load ptr, ptr %18, align 8
  tail call void %17(ptr noundef %1, ptr noundef %19) #11
  %20 = load ptr, ptr %12, align 8
  %21 = getelementptr inbounds nuw i8, ptr %0, i64 24
  %22 = load ptr, ptr %21, align 8
  tail call void %20(ptr noundef %1, ptr noundef %22) #11
  tail call void @llvm.memset.p0.i64(ptr noundef nonnull align 8 dereferenceable(56) %0, i8 0, i64 56, i1 false)
  ret void
}